target datalayout = "e-m:e-p270:32:32-p271:32:32-p272:64:64-i64:64-i128:128-f80:128-n8:16:32:64-S128"
target triple = "x86_64-pc-linux-gnu"

%struct._clusterNode = type { i64, [40 x i8], [40 x i8], i32, i64, [2048 x i8], ptr, i32, i32, i32, ptr, ptr, i64, i64, i64, i64, i64, i64, i64, i64, i64, [46 x i8], ptr, ptr, i32, i32, i32, ptr, ptr, ptr }
%struct.list = type { ptr, ptr, ptr, ptr, ptr, i64 }

; Function Attrs: nounwind uwtable
define dso_local ptr @createClusterNode(ptr noundef %0, i32 noundef %1) #0 {
  %3 = alloca ptr, align 8
  %4 = alloca i32, align 4
  %5 = alloca ptr, align 8
  store ptr %0, ptr %3, align 8, !tbaa !52
  store i32 %1, ptr %4, align 4, !tbaa !46
  call void @llvm.lifetime.start.p0(i64 8, ptr %5) #16
  %6 = call noalias ptr @zmalloc(i64 noundef 2368) #20
  store ptr %6, ptr %5, align 8, !tbaa !5
  %7 = load ptr, ptr %3, align 8, !tbaa !52
  %8 = icmp ne ptr %7, null
  br i1 %8, label %9, label %14

9:                                                ; preds = %2
  %10 = load ptr, ptr %5, align 8, !tbaa !5
  %11 = getelementptr inbounds nuw %struct._clusterNode, ptr %10, i32 0, i32 1
  %12 = getelementptr inbounds [40 x i8], ptr %11, i64 0, i64 0
  %13 = load ptr, ptr %3, align 8, !tbaa !52
  call void @llvm.memcpy.p0.p0.i64(ptr align 8 %12, ptr align 1 %13, i64 40, i1 false)
  br label %18

14:                                               ; preds = %2
  %15 = load ptr, ptr %5, align 8, !tbaa !5
  %16 = getelementptr inbounds nuw %struct._clusterNode, ptr %15, i32 0, i32 1
  %17 = getelementptr inbounds [40 x i8], ptr %16, i64 0, i64 0
  call void @getRandomHexChars(ptr noundef %17, i64 noundef 40)
  br label %18

18:                                               ; preds = %14, %9
  %19 = load ptr, ptr %5, align 8, !tbaa !5
  %20 = getelementptr inbounds nuw %struct._clusterNode, ptr %19, i32 0, i32 2
  %21 = getelementptr inbounds [40 x i8], ptr %20, i64 0, i64 0
  call void @getRandomHexChars(ptr noundef %21, i64 noundef 40)
  %22 = call i64 @mstime()
  %23 = load ptr, ptr %5, align 8, !tbaa !5
  %24 = getelementptr inbounds nuw %struct._clusterNode, ptr %23, i32 0, i32 0
  store i64 %22, ptr %24, align 8, !tbaa !96
  %25 = load ptr, ptr %5, align 8, !tbaa !5
  %26 = getelementptr inbounds nuw %struct._clusterNode, ptr %25, i32 0, i32 4
  store i64 0, ptr %26, align 8, !tbaa !92
  %27 = load i32, ptr %4, align 4, !tbaa !46
  %28 = load ptr, ptr %5, align 8, !tbaa !5
  %29 = getelementptr inbounds nuw %struct._clusterNode, ptr %28, i32 0, i32 3
  store i32 %27, ptr %29, align 8, !tbaa !86
  %30 = load ptr, ptr %5, align 8, !tbaa !5
  %31 = getelementptr inbounds nuw %struct._clusterNode, ptr %30, i32 0, i32 5
  %32 = getelementptr inbounds [2048 x i8], ptr %31, i64 0, i64 0
  call void @llvm.memset.p0.i64(ptr align 8 %32, i8 0, i64 2048, i1 false)
  %33 = load ptr, ptr %5, align 8, !tbaa !5
  %34 = getelementptr inbounds nuw %struct._clusterNode, ptr %33, i32 0, i32 6
  store ptr null, ptr %34, align 8, !tbaa !97
  %35 = load ptr, ptr %5, align 8, !tbaa !5
  %36 = getelementptr inbounds nuw %struct._clusterNode, ptr %35, i32 0, i32 7
  store i32 0, ptr %36, align 8, !tbaa !98
  %37 = load ptr, ptr %5, align 8, !tbaa !5
  %38 = getelementptr inbounds nuw %struct._clusterNode, ptr %37, i32 0, i32 8
  store i32 0, ptr %38, align 4, !tbaa !99
  %39 = load ptr, ptr %5, align 8, !tbaa !5
  %40 = getelementptr inbounds nuw %struct._clusterNode, ptr %39, i32 0, i32 9
  store i32 0, ptr %40, align 8, !tbaa !48
  %41 = load ptr, ptr %5, align 8, !tbaa !5
  %42 = getelementptr inbounds nuw %struct._clusterNode, ptr %41, i32 0, i32 10
  store ptr null, ptr %42, align 8, !tbaa !49
  %43 = load ptr, ptr %5, align 8, !tbaa !5
  %44 = getelementptr inbounds nuw %struct._clusterNode, ptr %43, i32 0, i32 11
  store ptr null, ptr %44, align 8, !tbaa !55
  %45 = load ptr, ptr %5, align 8, !tbaa !5
  %46 = getelementptr inbounds nuw %struct._clusterNode, ptr %45, i32 0, i32 12
  store i64 0, ptr %46, align 8, !tbaa !100
  %47 = load ptr, ptr %5, align 8, !tbaa !5
  %48 = getelementptr inbounds nuw %struct._clusterNode, ptr %47, i32 0, i32 14
  store i64 0, ptr %48, align 8, !tbaa !91
  %49 = load ptr, ptr %5, align 8, !tbaa !5
  %50 = getelementptr inbounds nuw %struct._clusterNode, ptr %49, i32 0, i32 13
  store i64 0, ptr %50, align 8, !tbaa !90
  %51 = load ptr, ptr %5, align 8, !tbaa !5
  %52 = getelementptr inbounds nuw %struct._clusterNode, ptr %51, i32 0, i32 15
  store i64 0, ptr %52, align 8, !tbaa !101
  %53 = load ptr, ptr %5, align 8, !tbaa !5
  %54 = getelementptr inbounds nuw %struct._clusterNode, ptr %53, i32 0, i32 16
  store i64 0, ptr %54, align 8, !tbaa !87
  %55 = load ptr, ptr %5, align 8, !tbaa !5
  %56 = getelementptr inbounds nuw %struct._clusterNode, ptr %55, i32 0, i32 27
  store ptr null, ptr %56, align 8, !tbaa !102
  %57 = load ptr, ptr %5, align 8, !tbaa !5
  %58 = getelementptr inbounds nuw %struct._clusterNode, ptr %57, i32 0, i32 28
  store ptr null, ptr %58, align 8, !tbaa !103
  %59 = load ptr, ptr %5, align 8, !tbaa !5
  %60 = getelementptr inbounds nuw %struct._clusterNode, ptr %59, i32 0, i32 21
  %61 = getelementptr inbounds [46 x i8], ptr %60, i64 0, i64 0
  call void @llvm.memset.p0.i64(ptr align 8 %61, i8 0, i64 46, i1 false)
  %62 = call ptr @sdsempty()
  %63 = load ptr, ptr %5, align 8, !tbaa !5
  %64 = getelementptr inbounds nuw %struct._clusterNode, ptr %63, i32 0, i32 22
  store ptr %62, ptr %64, align 8, !tbaa !77
  %65 = call ptr @sdsempty()
  %66 = load ptr, ptr %5, align 8, !tbaa !5
  %67 = getelementptr inbounds nuw %struct._clusterNode, ptr %66, i32 0, i32 23
  store ptr %65, ptr %67, align 8, !tbaa !53
  %68 = load ptr, ptr %5, align 8, !tbaa !5
  %69 = getelementptr inbounds nuw %struct._clusterNode, ptr %68, i32 0, i32 24
  store i32 0, ptr %69, align 8, !tbaa !45
  %70 = load ptr, ptr %5, align 8, !tbaa !5
  %71 = getelementptr inbounds nuw %struct._clusterNode, ptr %70, i32 0, i32 26
  store i32 0, ptr %71, align 8, !tbaa !84
  %72 = load ptr, ptr %5, align 8, !tbaa !5
  %73 = getelementptr inbounds nuw %struct._clusterNode, ptr %72, i32 0, i32 25
  store i32 0, ptr %73, align 4, !tbaa !40
  %74 = call ptr @listCreate()
  %75 = load ptr, ptr %5, align 8, !tbaa !5
  %76 = getelementptr inbounds nuw %struct._clusterNode, ptr %75, i32 0, i32 29
  store ptr %74, ptr %76, align 8, !tbaa !104
  %77 = load ptr, ptr %5, align 8, !tbaa !5
  %78 = getelementptr inbounds nuw %struct._clusterNode, ptr %77, i32 0, i32 17
  store i64 0, ptr %78, align 8, !tbaa !105
  %79 = load ptr, ptr %5, align 8, !tbaa !5
  %80 = getelementptr inbounds nuw %struct._clusterNode, ptr %79, i32 0, i32 19
  store i64 0, ptr %80, align 8, !tbaa !106
  %81 = load ptr, ptr %5, align 8, !tbaa !5
  %82 = getelementptr inbounds nuw %struct._clusterNode, ptr %81, i32 0, i32 18
  store i64 0, ptr %82, align 8, !tbaa !107
  %83 = load ptr, ptr %5, align 8, !tbaa !5
  %84 = getelementptr inbounds nuw %struct._clusterNode, ptr %83, i32 0, i32 20
  store i64 0, ptr %84, align 8, !tbaa !108
  %85 = load ptr, ptr %5, align 8, !tbaa !5
  %86 = getelementptr inbounds nuw %struct._clusterNode, ptr %85, i32 0, i32 29
  %87 = load ptr, ptr %86, align 8, !tbaa !104
  %88 = getelementptr inbounds nuw %struct.list, ptr %87, i32 0, i32 3
  store ptr @zfree, ptr %88, align 8, !tbaa !109
  %89 = load ptr, ptr %5, align 8, !tbaa !5
  call void @llvm.lifetime.end.p0(i64 8, ptr %5) #16
  ret ptr %89
}