; Function Attrs: nounwind uwtable
define dso_local noundef ptr @createClusterNode(ptr noundef readonly captures(address_is_null) %0, i32 noundef %1) local_unnamed_addr #3 {
  %3 = tail call noalias dereferenceable_or_null(2368) ptr @zmalloc(i64 noundef 2368) #38
  %.not = icmp eq ptr %0, null
  %4 = getelementptr inbounds nuw i8, ptr %3, i64 8
  br i1 %.not, label %6, label %5

5:                                                ; preds = %2
  tail call void @llvm.memcpy.p0.p0.i64(ptr noundef nonnull align 8 dereferenceable(40) %4, ptr noundef nonnull align 1 dereferenceable(40) %0, i64 40, i1 false)
  br label %7

6:                                                ; preds = %2
  tail call void @getRandomHexChars(ptr noundef nonnull %4, i64 noundef 40) #33
  br label %7

7:                                                ; preds = %6, %5
  %8 = getelementptr inbounds nuw i8, ptr %3, i64 48
  tail call void @getRandomHexChars(ptr noundef nonnull %8, i64 noundef 40) #33
  %9 = tail call i64 @mstime() #33
  store i64 %9, ptr %3, align 8, !tbaa !91
  %10 = getelementptr inbounds nuw i8, ptr %3, i64 96
  store i64 0, ptr %10, align 8, !tbaa !89
  %11 = getelementptr inbounds nuw i8, ptr %3, i64 88
  store i32 %1, ptr %11, align 8, !tbaa !82
  %12 = getelementptr inbounds nuw i8, ptr %3, i64 104
  %13 = getelementptr inbounds nuw i8, ptr %3, i64 2176
  %14 = getelementptr inbounds nuw i8, ptr %3, i64 2344
  %15 = getelementptr inbounds nuw i8, ptr %3, i64 2264
  tail call void @llvm.memset.p0.i64(ptr noundef nonnull align 8 dereferenceable(46) %15, i8 0, i64 46, i1 false)
  tail call void @llvm.memset.p0.i64(ptr noundef nonnull align 8 dereferenceable(2068) %12, i8 0, i64 2068, i1 false)
  tail call void @llvm.memset.p0.i64(ptr noundef nonnull align 8 dereferenceable(56) %13, i8 0, i64 56, i1 false)
  tail call void @llvm.memset.p0.i64(ptr noundef nonnull align 8 dereferenceable(16) %14, i8 0, i64 16, i1 false)
  %16 = tail call ptr @sdsempty() #33
  %17 = getelementptr inbounds nuw i8, ptr %3, i64 2312
  store ptr %16, ptr %17, align 8, !tbaa !73
  %18 = tail call ptr @sdsempty() #33
  %19 = getelementptr inbounds nuw i8, ptr %3, i64 2320
  store ptr %18, ptr %19, align 8, !tbaa !49
  %20 = getelementptr inbounds nuw i8, ptr %3, i64 2328
  store i32 0, ptr %20, align 8, !tbaa !54
  %21 = getelementptr inbounds nuw i8, ptr %3, i64 2336
  store i32 0, ptr %21, align 8, !tbaa !80
  %22 = getelementptr inbounds nuw i8, ptr %3, i64 2332
  store i32 0, ptr %22, align 4, !tbaa !55
  %23 = tail call ptr @listCreate() #33
  %24 = getelementptr inbounds nuw i8, ptr %3, i64 2360
  store ptr %23, ptr %24, align 8, !tbaa !92
  %25 = getelementptr inbounds nuw i8, ptr %3, i64 2232
  %26 = getelementptr inbounds nuw i8, ptr %23, i64 24
  tail call void @llvm.memset.p0.i64(ptr noundef nonnull align 8 dereferenceable(32) %25, i8 0, i64 32, i1 false)
  store ptr @zfree, ptr %26, align 8, !tbaa !93
  ret ptr %3
}